; Function Attrs: mustprogress nounwind uwtable
define internal noundef i64 @"_ZN5folly6detail8function13DispatchSmall4execIZNS_20IOThreadPoolExecutor9threadRunESt10shared_ptrINS_18ThreadPoolExecutor6ThreadEEE3$_0EEmNS1_2OpEPNS1_4DataESC_"(i32 noundef %0, ptr noundef captures(none) %1, ptr noundef writeonly captures(none) %2) #0 align 2 personality ptr @__gxx_personality_v0 {
  switch i32 %0, label %"_ZZN5folly20IOThreadPoolExecutor9threadRunESt10shared_ptrINS_18ThreadPoolExecutor6ThreadEEEN3$_0D2Ev.exit" [
    i32 0, label %4
    i32 1, label %9
  ]

4:                                                ; preds = %3
  %5 = load ptr, ptr %1, align 8, !tbaa !18
  store ptr %5, ptr %2, align 8, !tbaa !18
  %6 = getelementptr inbounds nuw i8, ptr %2, i64 8
  store ptr null, ptr %6, align 8, !tbaa !46
  %7 = getelementptr inbounds nuw i8, ptr %1, i64 8
  %8 = load ptr, ptr %7, align 8, !tbaa !46
  store ptr null, ptr %7, align 8, !tbaa !46
  store ptr %8, ptr %6, align 8, !tbaa !46
  store ptr null, ptr %1, align 8, !tbaa !18
  br label %9

9:                                                ; preds = %4, %3
  %10 = getelementptr i8, ptr %1, i64 8
  %.val = load ptr, ptr %10, align 8, !tbaa !46
  %.not.i.i.i = icmp eq ptr %.val, null
  br i1 %.not.i.i.i, label %"_ZZN5folly20IOThreadPoolExecutor9threadRunESt10shared_ptrINS_18ThreadPoolExecutor6ThreadEEEN3$_0D2Ev.exit", label %11

11:                                               ; preds = %9
  %12 = getelementptr inbounds nuw i8, ptr %.val, i64 8
  %13 = load atomic i64, ptr %12 acquire, align 8
  %14 = icmp eq i64 %13, 4294967297
  %15 = trunc i64 %13 to i32
  br i1 %14, label %16, label %24

16:                                               ; preds = %11
  store i32 0, ptr %12, align 8, !tbaa !21
  %17 = getelementptr inbounds nuw i8, ptr %.val, i64 12
  store i32 0, ptr %17, align 4, !tbaa !24
  %18 = load ptr, ptr %.val, align 8, !tbaa !25
  %19 = getelementptr inbounds nuw i8, ptr %18, i64 16
  %20 = load ptr, ptr %19, align 8
  tail call void %20(ptr noundef nonnull align 8 dereferenceable(16) %.val) #25
  %21 = load ptr, ptr %.val, align 8, !tbaa !25
  %22 = getelementptr inbounds nuw i8, ptr %21, i64 24
  %23 = load ptr, ptr %22, align 8
  tail call void %23(ptr noundef nonnull align 8 dereferenceable(16) %.val) #25
  br label %"_ZZN5folly20IOThreadPoolExecutor9threadRunESt10shared_ptrINS_18ThreadPoolExecutor6ThreadEEEN3$_0D2Ev.exit"

24:                                               ; preds = %11
  %25 = load i8, ptr @__libc_single_threaded, align 1, !tbaa !48
  %.not.i.i.i.i = icmp eq i8 %25, 0
  br i1 %.not.i.i.i.i, label %28, label %26

26:                                               ; preds = %24
  %27 = add nsw i32 %15, -1
  store i32 %27, ptr %12, align 4, !tbaa !60
  br label %_ZN9__gnu_cxx27__exchange_and_add_dispatchEPii.exit.i.i.i.i

28:                                               ; preds = %24
  %29 = atomicrmw volatile add ptr %12, i32 -1 acq_rel, align 4
  br label %_ZN9__gnu_cxx27__exchange_and_add_dispatchEPii.exit.i.i.i.i

_ZN9__gnu_cxx27__exchange_and_add_dispatchEPii.exit.i.i.i.i: ; preds = %28, %26
  %.0.i.i.i.i.i = phi i32 [ %15, %26 ], [ %29, %28 ]
  %30 = icmp eq i32 %.0.i.i.i.i.i, 1
  br i1 %30, label %31, label %"_ZZN5folly20IOThreadPoolExecutor9threadRunESt10shared_ptrINS_18ThreadPoolExecutor6ThreadEEEN3$_0D2Ev.exit", !prof !91

31:                                               ; preds = %_ZN9__gnu_cxx27__exchange_and_add_dispatchEPii.exit.i.i.i.i
  tail call void @_ZNSt16_Sp_counted_baseILN9__gnu_cxx12_Lock_policyE2EE24_M_release_last_use_coldEv(ptr noundef nonnull align 8 dereferenceable(16) %.val) #25
  br label %"_ZZN5folly20IOThreadPoolExecutor9threadRunESt10shared_ptrINS_18ThreadPoolExecutor6ThreadEEEN3$_0D2Ev.exit"

"_ZZN5folly20IOThreadPoolExecutor9threadRunESt10shared_ptrINS_18ThreadPoolExecutor6ThreadEEEN3$_0D2Ev.exit": ; preds = %31, %_ZN9__gnu_cxx27__exchange_and_add_dispatchEPii.exit.i.i.i.i, %16, %9, %3
  ret i64 0
}